; Function Attrs: mustprogress uwtable
define void @_ZN3gmx16GaussTransform3DC2ERKNS_7extentsIJLln1ELln1ELln1EEEERKNS_30GaussianSpreadKernelParameters5ShapeE(ptr noundef nonnull writeonly align 8 captures(none) dereferenceable(8) %0, ptr noundef nonnull align 8 dereferenceable(32) %1, ptr noundef nonnull align 8 dereferenceable(32) %2) unnamed_addr #0 align 2 personality ptr @__gxx_personality_v0 {
  %4 = tail call noalias noundef nonnull dereferenceable(200) ptr @_Znwm(i64 noundef 200) #21
  invoke void @_ZN3gmx16GaussTransform3D4ImplC1ERKNS_7extentsIJLln1ELln1ELln1EEEERKNS_30GaussianSpreadKernelParameters5ShapeE(ptr noundef nonnull align 8 dereferenceable(200) %4, ptr noundef nonnull align 8 dereferenceable(32) %1, ptr noundef nonnull align 8 dereferenceable(32) %2)
          to label %5 unwind label %6

5:                                                ; preds = %3
  store ptr %4, ptr %0, align 8, !tbaa !76
  ret void

6:                                                ; preds = %3
  %7 = landingpad { ptr, i32 }
          cleanup
  tail call void @_ZdlPvm(ptr noundef nonnull %4, i64 noundef 200) #23
  resume { ptr, i32 } %7
}